; Function Attrs: mustprogress nofree norecurse nosync nounwind memory(readwrite, inaccessiblemem: none) uwtable
define void @_ZN5faiss4HNSW21clear_neighbor_tablesEi(ptr noundef nonnull readonly align 8 captures(none) dereferenceable(5142) %0, i32 noundef %1) local_unnamed_addr #17 align 2 {
  %3 = getelementptr inbounds nuw i8, ptr %0, i64 48
  %4 = getelementptr inbounds nuw i8, ptr %0, i64 56
  %5 = load ptr, ptr %4, align 8, !tbaa !4
  %6 = load ptr, ptr %3, align 8, !tbaa !10
  %.not = icmp eq ptr %5, %6
  br i1 %.not, label %._crit_edge14, label %.lr.ph13

.lr.ph13:                                         ; preds = %2
  %7 = ptrtoint ptr %5 to i64
  %8 = ptrtoint ptr %6 to i64
  %9 = sub i64 %7, %8
  %10 = ashr exact i64 %9, 2
  %11 = getelementptr inbounds nuw i8, ptr %0, i64 72
  %12 = load ptr, ptr %11, align 8, !tbaa !25
  %13 = getelementptr inbounds nuw i8, ptr %0, i64 24
  %14 = sext i32 %1 to i64
  %15 = load ptr, ptr %13, align 8, !tbaa !10
  %16 = getelementptr i32, ptr %15, i64 %14
  %17 = getelementptr i8, ptr %16, i64 4
  %18 = getelementptr inbounds nuw i8, ptr %0, i64 96
  %19 = load ptr, ptr %18, align 8
  %umax = tail call i64 @llvm.umax.i64(i64 %10, i64 1)
  br label %20

._crit_edge14:                                    ; preds = %._crit_edge, %2
  ret void

20:                                               ; preds = %.lr.ph13, %._crit_edge
  %indvars.iv = phi i64 [ 0, %.lr.ph13 ], [ %indvars.iv.next, %._crit_edge ]
  %21 = getelementptr inbounds nuw i64, ptr %12, i64 %indvars.iv
  %22 = load i64, ptr %21, align 8, !tbaa !28
  %23 = load i32, ptr %16, align 4, !tbaa !19
  %24 = sext i32 %23 to i64
  %25 = add i64 %22, %24
  %26 = load i32, ptr %17, align 4, !tbaa !19
  %27 = sext i32 %26 to i64
  %28 = add i64 %22, %27
  %29 = icmp ult i64 %25, %28
  br i1 %29, label %.lr.ph.preheader, label %._crit_edge

.lr.ph.preheader:                                 ; preds = %20
  %30 = shl i64 %25, 2
  %scevgep = getelementptr i8, ptr %19, i64 %30
  %31 = sub nsw i64 %27, %24
  %32 = shl nsw i64 %31, 2
  tail call void @llvm.memset.p0.i64(ptr align 4 %scevgep, i8 -1, i64 %32, i1 false), !tbaa !19
  br label %._crit_edge

._crit_edge:                                      ; preds = %.lr.ph.preheader, %20
  %indvars.iv.next = add nuw nsw i64 %indvars.iv, 1
  %exitcond.not = icmp eq i64 %indvars.iv.next, %umax
  br i1 %exitcond.not, label %._crit_edge14, label %20, !llvm.loop !60
}